Certificate:
    Data:
        Version: 3 (0x2)
        Serial Number:
            58:c2:c4:94:9a:b3:dc:ca:55:f3:f2:b4:46:a1:3c:87:d2:8f:68:da
        Signature Algorithm: sha256WithRSAEncryption
        Issuer: CN=localhost
        Validity
            Not Before: May 17 14:08:54 2024 GMT
            Not After : Apr 23 14:08:54 2124 GMT
        Subject: CN=localhost
        Subject Public Key Info:
            Public Key Algorithm: rsaEncryption
                Public-Key: (2048 bit)
                Modulus:
                    00:94:4b:76:3c:fb:35:e7:3e:14:a6:7b:cf:93:f1:
                    a8:8b:5c:f1:08:bd:5b:eb:49:d1:df:d1:ff:dc:29:
                    79:f0:04:a9:48:96:c2:27:89:f8:87:c2:34:5f:63:
                    ca:74:8b:2d:ae:ce:1a:5e:93:dc:51:54:20:59:16:
                    73:8c:95:7a:83:50:e1:a7:d8:7c:6c:1c:a2:ce:c6:
                    25:2f:62:7a:84:dc:e0:ea:b0:87:18:1f:58:92:a7:
                    64:21:9f:3a:39:86:ee:c5:f7:f7:a8:94:c7:d0:34:
                    09:fa:c5:0e:5f:75:b0:63:0f:e6:72:90:10:5c:ae:
                    62:05:8f:ac:6a:be:0a:39:a2:f8:bb:93:e2:23:d3:
                    6f:79:3d:1b:f9:3b:2e:10:16:66:3f:c5:83:62:21:
                    4f:15:75:ab:fc:40:24:6a:4a:75:91:74:9a:dc:3b:
                    25:4c:81:e4:67:a6:16:47:28:8d:0e:81:b7:2f:27:
                    e2:38:6d:02:d9:dd:3a:fb:62:36:68:54:b5:5a:4b:
                    d8:46:42:b2:53:d8:57:0c:dc:57:d8:29:1e:28:cc:
                    96:74:8b:27:92:b9:cf:28:31:0f:6a:0e:66:11:92:
                    23:1b:de:4a:af:8f:a9:d1:60:68:b1:40:51:d5:91:
                    61:e6:d7:3d:aa:65:77:27:37:3a:3c:c5:a6:9e:87:
                    09:d5
                Exponent: 65537 (0x10001)
        X509v3 extensions:
            X509v3 Subject Alternative Name: 
                DNS:localhost
            X509v3 Subject Key Identifier: 
                38:0F:76:6E:3D:DD:BF:FF:EC:89:2F:AB:0A:FB:2A:86:E8:E0:CF:7C
    Signature Algorithm: sha256WithRSAEncryption
    Signature Value:
        22:52:0f:d3:07:a3:17:40:59:95:0a:0f:8e:1d:b6:42:ff:f8:
        68:e0:93:07:98:3d:36:10:68:58:e7:c2:ae:3a:77:85:14:ed:
        1b:b4:59:f8:89:9a:ee:63:98:f8:9e:66:76:43:ba:40:84:55:
        70:1b:54:4c:3c:42:93:76:ef:f2:10:7b:e3:68:7e:e4:60:f3:
        02:32:58:e1:07:ab:2f:cb:fe:8d:a2:21:09:e0:03:a7:31:15:
        0b:f3:22:e1:77:ae:96:d3:ed:09:1d:8e:0c:cd:b7:02:9c:25:
        36:ed:9d:72:50:d1:38:bc:1d:77:d6:04:9a:b1:74:ce:fe:01:
        f8:6e:0a:8d:a3:15:2c:24:47:0c:69:bb:ba:70:b6:f0:fb:85:
        1b:e3:13:ba:2a:9f:a9:ce:3c:f6:d1:21:f4:d1:cf:9d:99:2b:
        c6:96:57:93:b9:50:35:05:14:19:1f:7a:58:cc:dd:58:08:58:
        b5:20:19:00:00:38:37:bc:17:8e:a3:71:77:bf:1b:a6:57:24:
        e5:f7:5b:74:0c:57:8d:89:95:c1:89:e8:54:59:7d:bd:72:11:
        2d:c9:92:c3:83:5f:ba:67:73:bb:ea:dd:6f:c0:e5:1a:38:f7:
        7f:c2:7b:cb:8e:da:ea:ab:ef:88:c1:9e:ae:76:e8:63:fa:0c:
        8b:0a:a2:95
-----BEGIN CERTIFICATE-----
MIIC7zCCAdegAwIBAgIUWMLElJqz3MpV8/K0RqE8h9KPaNowDQYJKoZIhvcNAQEL
BQAwFDESMBAGA1UEAwwJbG9jYWxob3N0MCAXDTI0MDUxNzE0MDg1NFoYDzIxMjQw
NDIzMTQwODU0WjAUMRIwEAYDVQQDDAlsb2NhbGhvc3QwggEiMA0GCSqGSIb3DQEB
AQUAA4IBDwAwggEKAoIBAQCUS3Y8+zXnPhSme8+T8aiLXPEIvVvrSdHf0f/cKXnw
BKlIlsInifiHwjRfY8p0iy2uzhpek9xRVCBZFnOMlXqDUOGn2HxsHKLOxiUvYnqE
3ODqsIcYH1iSp2Qhnzo5hu7F9/eolMfQNAn6xQ5fdbBjD+ZykBBcrmIFj6xqvgo5
ovi7k+Ij0295PRv5Oy4QFmY/xYNiIU8Vdav8QCRqSnWRdJrcOyVMgeRnphZHKI0O
gbcvJ+I4bQLZ3Tr7YjZoVLVaS9hGQrJT2FcM3FfYKR4ozJZ0iyeSuc8oMQ9qDmYR
kiMb3kqvj6nRYGixQFHVkWHm1z2qZXcnNzo8xaaehwnVAgMBAAGjNzA1MBQGA1Ud
EQQNMAuCCWxvY2FsaG9zdDAdBgNVHQ4EFgQUOA92bj3dv//siS+rCvsqhujgz3ww
DQYJKoZIhvcNAQELBQADggEBACJSD9MHoxdAWZUKD44dtkL/+GjgkweYPTYQaFjn
wq46d4UU7Ru0WfiJmu5jmPieZnZDukCEVXAbVEw8QpN27/IQe+NofuRg8wIyWOEH
qy/L/o2iIQngA6cxFQvzIuF3rpbT7QkdjgzNtwKcJTbtnXJQ0Ti8HXfWBJqxdM7+
AfhuCo2jFSwkRwxpu7pwtvD7hRvjE7oqn6nOPPbRIfTRz52ZK8aWV5O5UDUFFBkf
eljM3VgIWLUgGQAAODe8F46jcXe/G6ZXJOX3W3QMV42JlcGJ6FRZfb1yES3JksOD
X7pnc7vq3W/A5Ro493/Ce8uO2uqr74jBnq526GP6DIsKopU=
-----END CERTIFICATE-----
