Certificate:
    Data:
        Version: 3 (0x2)
        Serial Number:
            05:ef:51:a5:5e:c0:c2:bf:5f:c3:e0:97:4e:c1:48:bb:05:c4:e5:78
        Signature Algorithm: sha256WithRSAEncryption
        Issuer: CN=dbhost.yourdomain.com
        Validity
            Not Before: May 16 15:58:04 2024 GMT
            Not After : May 16 15:58:04 2025 GMT
        Subject: CN=dbhost.yourdomain.com
        Subject Public Key Info:
            Public Key Algorithm: rsaEncryption
                Public-Key: (2048 bit)
                Modulus:
                    00:c1:4c:c2:07:6d:49:2b:ad:80:6f:d8:76:d1:7d:
                    a1:7c:1c:4f:41:13:2b:41:86:c7:58:2f:c3:38:46:
                    04:d9:c7:44:2d:5b:7c:89:39:8b:3b:32:55:df:2a:
                    ba:11:59:68:1e:e0:93:94:cf:62:0e:81:e3:0e:0b:
                    a8:b9:7a:bc:66:4a:22:62:d8:ac:75:22:46:9e:91:
                    e2:55:fa:1e:10:52:58:d2:14:7e:ff:6b:09:c3:37:
                    8b:e3:51:db:69:54:ec:40:68:19:b0:db:b5:5b:16:
                    a2:f1:10:20:ac:ac:fc:33:8d:86:da:3a:7e:92:c1:
                    dc:8e:0e:32:73:78:25:c4:f0:f7:ca:2b:c8:d8:94:
                    0b:9a:f9:d5:02:61:05:af:91:f8:30:68:1e:aa:2f:
                    36:66:b2:60:df:75:42:f9:7f:43:19:1a:e6:7e:68:
                    48:25:4e:61:76:f4:25:c4:e4:c5:a3:78:ab:7e:1a:
                    1a:be:47:d8:d8:2d:0c:9d:d9:24:77:99:b7:3e:94:
                    78:9a:ea:bb:61:62:db:b6:4f:8b:78:d1:c3:2a:d3:
                    9a:c2:d6:39:a6:83:40:e6:44:da:ce:09:97:49:86:
                    e9:dc:d4:82:8c:a4:d7:75:20:35:95:51:cf:fa:ae:
                    ce:ad:e8:b1:a9:7b:0c:55:57:74:4e:c8:0f:c7:3b:
                    ff:93
                Exponent: 65537 (0x10001)
        X509v3 extensions:
            X509v3 Subject Key Identifier: 
                5D:1C:A1:1F:F4:F1:06:7E:7E:E0:F9:D5:AA:80:BB:13:90:0F:4D:00
            X509v3 Authority Key Identifier: 
                5D:1C:A1:1F:F4:F1:06:7E:7E:E0:F9:D5:AA:80:BB:13:90:0F:4D:00
            X509v3 Basic Constraints: critical
                CA:TRUE
    Signature Algorithm: sha256WithRSAEncryption
    Signature Value:
        06:ee:ea:46:2c:00:39:4b:e1:cd:d9:34:ae:f2:92:56:18:b8:
        e4:f5:dd:d1:43:b2:cd:82:9c:62:0d:10:0e:19:cd:6d:7e:80:
        67:50:26:73:5a:d3:60:36:44:95:55:2f:34:36:35:28:16:b5:
        c7:38:73:ac:04:46:87:e6:55:1b:73:d2:b8:0c:cf:d1:c3:9b:
        76:0b:a4:ce:53:1c:02:84:1f:ac:ec:88:3a:5b:e6:5d:8e:8e:
        7a:19:a4:42:fc:78:d9:9b:5c:44:92:cc:51:2c:7b:40:e6:af:
        3d:55:48:01:85:f9:4a:17:e6:e5:bc:9e:1b:ca:73:77:c9:73:
        81:e8:fd:f1:0d:ba:19:89:f5:c0:22:f4:18:d9:c8:7d:07:ab:
        c4:ae:4b:9a:30:f9:80:70:1a:d6:37:98:6d:e3:e1:00:45:f8:
        9f:46:1e:f0:fe:28:52:ec:81:5f:5b:cc:4d:71:3a:aa:de:6d:
        fb:35:cd:53:60:65:66:a1:97:63:bf:9d:d4:63:f1:6f:6f:12:
        f0:72:7e:18:1f:68:1f:91:7c:dd:85:52:b2:be:65:a3:85:43:
        0d:7f:e7:c7:79:75:2d:80:1f:43:de:11:8f:ca:ef:75:86:8c:
        42:0c:69:68:59:2c:22:24:47:49:c5:71:6a:c4:51:78:97:4e:
        25:ea:1f:04
-----BEGIN CERTIFICATE-----
MIIDITCCAgmgAwIBAgIUBe9RpV7Awr9fw+CXTsFIuwXE5XgwDQYJKoZIhvcNAQEL
BQAwIDEeMBwGA1UEAwwVZGJob3N0LnlvdXJkb21haW4uY29tMB4XDTI0MDUxNjE1
NTgwNFoXDTI1MDUxNjE1NTgwNFowIDEeMBwGA1UEAwwVZGJob3N0LnlvdXJkb21h
aW4uY29tMIIBIjANBgkqhkiG9w0BAQEFAAOCAQ8AMIIBCgKCAQEAwUzCB21JK62A
b9h20X2hfBxPQRMrQYbHWC/DOEYE2cdELVt8iTmLOzJV3yq6EVloHuCTlM9iDoHj
DguouXq8ZkoiYtisdSJGnpHiVfoeEFJY0hR+/2sJwzeL41HbaVTsQGgZsNu1Wxai
8RAgrKz8M42G2jp+ksHcjg4yc3glxPD3yivI2JQLmvnVAmEFr5H4MGgeqi82ZrJg
33VC+X9DGRrmfmhIJU5hdvQlxOTFo3irfhoavkfY2C0Mndkkd5m3PpR4muq7YWLb
tk+LeNHDKtOawtY5poNA5kTazgmXSYbp3NSCjKTXdSA1lVHP+q7OreixqXsMVVd0
TsgPxzv/kwIDAQABo1MwUTAdBgNVHQ4EFgQUXRyhH/TxBn5+4PnVqoC7E5APTQAw
HwYDVR0jBBgwFoAUXRyhH/TxBn5+4PnVqoC7E5APTQAwDwYDVR0TAQH/BAUwAwEB
/zANBgkqhkiG9w0BAQsFAAOCAQEABu7qRiwAOUvhzdk0rvKSVhi45PXd0UOyzYKc
Yg0QDhnNbX6AZ1Amc1rTYDZElVUvNDY1KBa1xzhzrARGh+ZVG3PSuAzP0cObdguk
zlMcAoQfrOyIOlvmXY6OehmkQvx42ZtcRJLMUSx7QOavPVVIAYX5Shfm5byeG8pz
d8lzgej98Q26GYn1wCL0GNnIfQerxK5LmjD5gHAa1jeYbePhAEX4n0Ye8P4oUuyB
X1vMTXE6qt5t+zXNU2BlZqGXY7+d1GPxb28S8HJ+GB9oH5F83YVSsr5lo4VDDX/n
x3l1LYAfQ94Rj8rvdYaMQgxpaFksIiRHScVxasRReJdOJeofBA==
-----END CERTIFICATE-----
