Certificate:
    Data:
        Version: 3 (0x2)
        Serial Number:
            31:48:51:94:e2:bb:d2:69:4a:e1:48:0c:54:48:0a:7c:91:33:bf:af
        Signature Algorithm: sha256WithRSAEncryption
        Issuer: CN=dbhost.yourdomain.com
        Validity
            Not Before: May 16 15:51:42 2024 GMT
            Not After : May 16 15:51:42 2025 GMT
        Subject: CN=dbhost.yourdomain.com
        Subject Public Key Info:
            Public Key Algorithm: rsaEncryption
                Public-Key: (2048 bit)
                Modulus:
                    00:a4:c3:99:c2:f7:c6:52:85:48:0e:a9:6b:f8:ea:
                    c0:71:73:5b:7d:b4:30:bc:82:55:40:b9:3c:92:26:
                    c8:4d:9d:21:e1:42:a1:93:c0:89:28:44:91:fc:47:
                    d1:0f:6c:92:b8:3d:8c:da:87:7b:96:2d:23:a1:a0:
                    54:59:7e:0f:e7:36:cb:e2:90:0b:a0:52:ed:92:e8:
                    5b:5e:27:a3:15:c0:28:25:12:f6:24:9e:e2:80:98:
                    96:cc:73:0f:a9:18:04:8b:2a:59:e0:81:5c:26:e2:
                    66:f4:8b:81:14:f1:d9:43:89:11:96:bf:cb:68:f5:
                    e0:15:95:a6:f5:f4:18:70:69:50:06:3c:ca:3e:89:
                    b6:32:c5:a3:34:19:6e:41:90:e0:02:09:58:b1:33:
                    da:91:0c:3e:67:ff:a7:5c:21:bd:97:96:99:ba:10:
                    b2:3e:91:71:41:27:74:f6:6c:b9:4b:5a:1d:a7:c7:
                    7b:11:1f:3a:ea:82:c2:a2:a5:8e:75:ea:a7:36:19:
                    bf:70:3b:0e:c4:de:44:7d:66:7f:b8:90:47:10:a4:
                    35:fd:b7:3c:e5:dd:dd:1a:95:3e:2e:ca:0d:4c:32:
                    a3:47:36:21:c1:c7:8b:b0:ec:89:7e:06:72:a9:49:
                    09:cd:9e:b5:09:ea:8f:69:37:a2:08:ff:3c:93:77:
                    b1:0d
                Exponent: 65537 (0x10001)
        X509v3 extensions:
            X509v3 Subject Key Identifier: 
                22:38:BA:CA:B1:95:C5:35:5F:39:C3:E7:5F:41:76:BD:F5:30:44:48
            X509v3 Authority Key Identifier: 
                22:38:BA:CA:B1:95:C5:35:5F:39:C3:E7:5F:41:76:BD:F5:30:44:48
            X509v3 Basic Constraints: critical
                CA:TRUE
    Signature Algorithm: sha256WithRSAEncryption
    Signature Value:
        49:ee:ec:0e:52:aa:98:ed:45:d8:b2:fc:e7:90:30:0b:df:1a:
        cf:80:e4:cd:c2:04:7b:ad:b7:4e:73:bf:c8:82:68:22:85:2c:
        c2:ff:66:ac:ff:02:b1:c9:72:bd:b2:3d:65:6e:fe:52:2e:19:
        d4:ef:b6:2b:6c:29:95:9f:d6:23:0f:3c:49:30:4f:d0:57:fa:
        7d:b2:c0:63:cb:90:d0:30:07:b0:b5:c9:33:2e:1f:cf:d1:e6:
        57:b4:8a:93:2b:f1:2b:61:ec:66:6b:f6:41:89:29:6e:9b:19:
        a2:e4:a7:dc:dd:c6:ac:8a:71:1b:3c:b3:5d:3c:bf:9b:84:d9:
        27:03:b6:74:d0:1d:a2:e1:ce:1e:21:b3:77:2e:c4:7d:3b:ec:
        eb:7c:db:70:84:ed:fe:bf:25:37:0f:98:2e:83:2c:68:28:eb:
        a4:b7:98:da:6e:76:4c:71:f1:dd:57:ae:0e:41:90:42:0d:5d:
        e1:b6:a1:a9:78:8e:d6:28:7a:83:7e:c4:37:42:5e:15:95:57:
        35:61:d7:58:22:c5:1d:24:e3:ec:31:e6:ed:c2:d2:c2:2b:3b:
        51:68:09:6d:b8:42:56:46:35:29:4f:ed:8b:b0:79:a6:ea:c6:
        8a:1b:70:28:24:af:6c:7c:b1:df:68:fb:f7:47:2c:7b:b7:d7:
        76:75:97:f9
-----BEGIN CERTIFICATE-----
MIIDITCCAgmgAwIBAgIUMUhRlOK70mlK4UgMVEgKfJEzv68wDQYJKoZIhvcNAQEL
BQAwIDEeMBwGA1UEAwwVZGJob3N0LnlvdXJkb21haW4uY29tMB4XDTI0MDUxNjE1
NTE0MloXDTI1MDUxNjE1NTE0MlowIDEeMBwGA1UEAwwVZGJob3N0LnlvdXJkb21h
aW4uY29tMIIBIjANBgkqhkiG9w0BAQEFAAOCAQ8AMIIBCgKCAQEApMOZwvfGUoVI
Dqlr+OrAcXNbfbQwvIJVQLk8kibITZ0h4UKhk8CJKESR/EfRD2ySuD2M2od7li0j
oaBUWX4P5zbL4pALoFLtkuhbXiejFcAoJRL2JJ7igJiWzHMPqRgEiypZ4IFcJuJm
9IuBFPHZQ4kRlr/LaPXgFZWm9fQYcGlQBjzKPom2MsWjNBluQZDgAglYsTPakQw+
Z/+nXCG9l5aZuhCyPpFxQSd09my5S1odp8d7ER866oLCoqWOdeqnNhm/cDsOxN5E
fWZ/uJBHEKQ1/bc85d3dGpU+LsoNTDKjRzYhwceLsOyJfgZyqUkJzZ61CeqPaTei
CP88k3exDQIDAQABo1MwUTAdBgNVHQ4EFgQUIji6yrGVxTVfOcPnX0F2vfUwREgw
HwYDVR0jBBgwFoAUIji6yrGVxTVfOcPnX0F2vfUwREgwDwYDVR0TAQH/BAUwAwEB
/zANBgkqhkiG9w0BAQsFAAOCAQEASe7sDlKqmO1F2LL855AwC98az4DkzcIEe623
TnO/yIJoIoUswv9mrP8CsclyvbI9ZW7+Ui4Z1O+2K2wplZ/WIw88STBP0Ff6fbLA
Y8uQ0DAHsLXJMy4fz9HmV7SKkyvxK2HsZmv2QYkpbpsZouSn3N3GrIpxGzyzXTy/
m4TZJwO2dNAdouHOHiGzdy7EfTvs63zbcITt/r8lNw+YLoMsaCjrpLeY2m52THHx
3VeuDkGQQg1d4bahqXiO1ih6g37EN0JeFZVXNWHXWCLFHSTj7DHm7cLSwis7UWgJ
bbhCVkY1KU/ti7B5purGihtwKCSvbHyx32j790cse7fXdnWX+Q==
-----END CERTIFICATE-----
